target datalayout = "e-m:e-p270:32:32-p271:32:32-p272:64:64-i64:64-i128:128-f80:128-n8:16:32:64-S128"
target triple = "x86_64-pc-linux-gnu"

%struct.DefElem = type { i32, ptr, ptr, ptr, i32, i32 }

@.str.1 = private unnamed_addr constant [9 x i8] c"define.c\00", align 1
@.str.17 = private unnamed_addr constant [33 x i8] c"conflicting or redundant options\00", align 1
@__func__.errorConflictingDefElem = private unnamed_addr constant [24 x i8] c"errorConflictingDefElem\00", align 1

; Function Attrs: noreturn nounwind uwtable
define dso_local void @errorConflictingDefElem(ptr noundef %0, ptr noundef %1) #7 {
  %3 = alloca ptr, align 8
  %4 = alloca ptr, align 8
  store ptr %0, ptr %3, align 8
  store ptr %1, ptr %4, align 8
  br label %5

5:                                                ; preds = %2
  br i1 true, label %6, label %8

6:                                                ; preds = %5
  %7 = call zeroext i1 @errstart_cold(i32 noundef 21, ptr noundef null) #9
  br i1 %7, label %10, label %18

8:                                                ; preds = %5
  %9 = call zeroext i1 @errstart(i32 noundef 21, ptr noundef null)
  br i1 %9, label %10, label %18

10:                                               ; preds = %8, %6
  %11 = call i32 @errcode(i32 noundef 16801924)
  %12 = call i32 (ptr, ...) @errmsg(ptr noundef @.str.17)
  %13 = load ptr, ptr %4, align 8
  %14 = load ptr, ptr %3, align 8
  %15 = getelementptr inbounds nuw %struct.DefElem, ptr %14, i32 0, i32 5
  %16 = load i32, ptr %15, align 4
  %17 = call i32 @parser_errposition(ptr noundef %13, i32 noundef %16)
  call void @errfinish(ptr noundef @.str.1, i32 noundef 376, ptr noundef @__func__.errorConflictingDefElem)
  br label %18

18:                                               ; preds = %10, %8, %6
  unreachable

19:                                               ; No predecessors!
  unreachable
}