; Function Attrs: cold noreturn nounwind uwtable
define dso_local void @errorConflictingDefElem(ptr noundef readonly captures(none) %0, ptr noundef %1) local_unnamed_addr #3 {
  %3 = tail call zeroext i1 @errstart_cold(i32 noundef 21, ptr noundef null) #6
  tail call void @llvm.assume(i1 %3)
  %4 = tail call i32 @errcode(i32 noundef 16801924) #7
  %5 = tail call i32 (ptr, ...) @errmsg(ptr noundef nonnull @.str.17) #7
  %6 = getelementptr inbounds nuw i8, ptr %0, i64 36
  %7 = load i32, ptr %6, align 4
  %8 = tail call i32 @parser_errposition(ptr noundef %1, i32 noundef %7) #7
  tail call void @errfinish(ptr noundef nonnull @.str.1, i32 noundef 376, ptr noundef nonnull @__func__.errorConflictingDefElem) #7
  unreachable
}